; Function Attrs: mustprogress uwtable
define hidden void @_ZNK19OpenColorIO_v2_5dev28GradingRGBCurveTransformImpl8getValueEv(ptr dead_on_unwind noalias writable writeonly sret(%"class.std::shared_ptr.15") align 8 captures(none) initializes((0, 16)) %0, ptr noundef nonnull readonly align 8 captures(none) dereferenceable(208) %1) unnamed_addr #0 align 2 personality ptr @__gxx_personality_v0 {
  tail call void @llvm.experimental.noalias.scope.decl(metadata !59)
  %3 = getelementptr inbounds nuw i8, ptr %1, i64 184
  %4 = load ptr, ptr %3, align 8, !tbaa !62, !noalias !59
  %5 = load ptr, ptr %4, align 8, !tbaa !3, !noalias !59
  %6 = getelementptr inbounds nuw i8, ptr %5, i64 24
  %7 = load ptr, ptr %6, align 8, !noalias !59
  %8 = tail call noundef nonnull align 8 dereferenceable(16) ptr %7(ptr noundef nonnull align 8 dereferenceable(144) %4), !noalias !59
  %9 = load ptr, ptr %8, align 8, !tbaa !63, !noalias !59
  store ptr %9, ptr %0, align 8, !tbaa !63, !alias.scope !59
  %10 = getelementptr inbounds nuw i8, ptr %0, i64 8
  %11 = getelementptr inbounds nuw i8, ptr %8, i64 8
  %12 = load ptr, ptr %11, align 8, !tbaa !13, !noalias !59
  store ptr %12, ptr %10, align 8, !tbaa !13, !alias.scope !59
  %.not.i.i.i.i = icmp eq ptr %12, null
  br i1 %.not.i.i.i.i, label %_ZNK19OpenColorIO_v2_5dev21GradingRGBCurveOpData8getValueEv.exit, label %13

13:                                               ; preds = %2
  %14 = getelementptr inbounds nuw i8, ptr %12, i64 8
  %15 = load i8, ptr @__libc_single_threaded, align 1, !tbaa !27, !noalias !59
  %.not.i.i.i.i.i = icmp eq i8 %15, 0
  br i1 %.not.i.i.i.i.i, label %19, label %16

16:                                               ; preds = %13
  %17 = load i32, ptr %14, align 4, !tbaa !28, !noalias !59
  %18 = add nsw i32 %17, 1
  store i32 %18, ptr %14, align 4, !tbaa !28, !noalias !59
  br label %_ZNK19OpenColorIO_v2_5dev21GradingRGBCurveOpData8getValueEv.exit

19:                                               ; preds = %13
  %20 = atomicrmw volatile add ptr %14, i32 1 acq_rel, align 4, !noalias !59
  br label %_ZNK19OpenColorIO_v2_5dev21GradingRGBCurveOpData8getValueEv.exit

_ZNK19OpenColorIO_v2_5dev21GradingRGBCurveOpData8getValueEv.exit: ; preds = %2, %16, %19
  ret void
}